(lp0
I12804
aI12804
aI14550
aI14550
aI4196
aI4196
aI30357
aI14550
aI4196
aI44520
aI17299
aI42256
aI5517
aI23299
aI36111
aI5517
aI27579
aI29421
aI19285
aI30796
aI36111
aI4196
aI44520
aI44520
aI44520
aI13129
aI4196
aI44520
aI19016
aI30357
aI42256
aI16638
aI519
aI36111
aI5517
aI27579
aI29421
aI19285
aI30796
aI5517
aI35164
aI42256
aI1604
aI44520
aI19016
aI28505
aI19016
aI14004
aI30357
aI12804
aI5517
aI29406
aI519
aI36111
aI42256
aI19252
aI30796
aI36111
aI28505
aI13129
aI28505
aI14004
aI14550
aI44520
aI28505
aI44520
aI19016
aI30357
aI189
aI16665
aI44696
aI44696
aI37268
aI27579
aI29421
aI19285
aI30796
aI12804
aI4196
aI30357
aI12804
aI30300
aI16665
aI29421
aI32926
aI27789
aI32926
aI12804
aI30357
aI14550
aI30357
aI17667
aI4045
aI29421
aI17667
aI14550
aI13129
aI14550
aI4196
a.
